target datalayout = "e-m:e-p270:32:32-p271:32:32-p272:64:64-i64:64-i128:128-f80:128-n8:16:32:64-S128"
target triple = "x86_64-pc-linux-gnu"

%class.s_integer = type { i32 }

; Function Attrs: mustprogress nounwind uwtable
define linkonce_odr hidden noundef nonnull align 4 dereferenceable(4) ptr @_ZN9s_integerrMERKS_(ptr noundef nonnull align 4 dereferenceable(4) %0, ptr noundef nonnull align 4 dereferenceable(4) %1) #4 comdat align 2 {
  %3 = alloca ptr, align 8
  %4 = alloca ptr, align 8
  store ptr %0, ptr %3, align 8, !tbaa !3
  store ptr %1, ptr %4, align 8, !tbaa !3
  %5 = load ptr, ptr %3, align 8
  %6 = load ptr, ptr %4, align 8, !tbaa !3
  %7 = getelementptr inbounds nuw %class.s_integer, ptr %6, i32 0, i32 0
  %8 = load i32, ptr %7, align 4, !tbaa !10
  %9 = getelementptr inbounds nuw %class.s_integer, ptr %5, i32 0, i32 0
  %10 = load i32, ptr %9, align 4, !tbaa !10
  %11 = srem i32 %10, %8
  store i32 %11, ptr %9, align 4, !tbaa !10
  ret ptr %5
}

; Function Attrs: inlinehint mustprogress nounwind uwtable
define linkonce_odr void @_ZSt4swapIiENSt9enable_ifIXsr6__and_ISt6__not_ISt15__is_tuple_likeIT_EESt21is_move_constructibleIS3_ESt18is_move_assignableIS3_EEE5valueEvE4typeERS3_SC_(ptr noundef nonnull align 4 dereferenceable(4) %0, ptr noundef nonnull align 4 dereferenceable(4) %1) #8 comdat {
  %3 = alloca ptr, align 8
  %4 = alloca ptr, align 8
  %5 = alloca i32, align 4
  store ptr %0, ptr %3, align 8, !tbaa !18
  store ptr %1, ptr %4, align 8, !tbaa !18
  call void @llvm.lifetime.start.p0(i64 4, ptr %5) #3
  %6 = load ptr, ptr %3, align 8, !tbaa !18
  %7 = load i32, ptr %6, align 4, !tbaa !8
  store i32 %7, ptr %5, align 4, !tbaa !8
  %8 = load ptr, ptr %4, align 8, !tbaa !18
  %9 = load i32, ptr %8, align 4, !tbaa !8
  %10 = load ptr, ptr %3, align 8, !tbaa !18
  store i32 %9, ptr %10, align 4, !tbaa !8
  %11 = load i32, ptr %5, align 4, !tbaa !8
  %12 = load ptr, ptr %4, align 8, !tbaa !18
  store i32 %11, ptr %12, align 4, !tbaa !8
  call void @llvm.lifetime.end.p0(i64 4, ptr %5) #3
  ret void
}

; Function Attrs: mustprogress nounwind uwtable
define linkonce_odr hidden noundef zeroext i1 @_ZNK9s_integer7is_zeroEv(ptr noundef nonnull align 4 dereferenceable(4) %0) #4 comdat align 2 {
  %2 = alloca ptr, align 8
  store ptr %0, ptr %2, align 8, !tbaa !3
  %3 = load ptr, ptr %2, align 8
  %4 = getelementptr inbounds nuw %class.s_integer, ptr %3, i32 0, i32 0
  %5 = load i32, ptr %4, align 4, !tbaa !10
  %6 = icmp eq i32 %5, 0
  ret i1 %6
}

; Function Attrs: inlinehint mustprogress uwtable
define linkonce_odr hidden i32 @_ZrmRK9s_integerS1_(ptr noundef nonnull align 4 dereferenceable(4) %0, ptr noundef nonnull align 4 dereferenceable(4) %1) #9 comdat {
  %3 = alloca %class.s_integer, align 4
  %4 = alloca ptr, align 8
  %5 = alloca ptr, align 8
  %6 = alloca %class.s_integer, align 4
  store ptr %0, ptr %4, align 8, !tbaa !3
  store ptr %1, ptr %5, align 8, !tbaa !3
  %7 = load ptr, ptr %5, align 8, !tbaa !3
  call void @llvm.lifetime.start.p0(i64 4, ptr %6) #3
  %8 = load ptr, ptr %4, align 8, !tbaa !3
  call void @llvm.memcpy.p0.p0.i64(ptr align 4 %6, ptr align 4 %8, i64 4, i1 false), !tbaa.struct !14
  %9 = call noundef nonnull align 4 dereferenceable(4) ptr @_ZN9s_integerrMERKS_(ptr noundef nonnull align 4 dereferenceable(4) %6, ptr noundef nonnull align 4 dereferenceable(4) %7)
  call void @llvm.memcpy.p0.p0.i64(ptr align 4 %3, ptr align 4 %9, i64 4, i1 false), !tbaa.struct !14
  call void @llvm.lifetime.end.p0(i64 4, ptr %6) #3
  %10 = getelementptr inbounds nuw %class.s_integer, ptr %3, i32 0, i32 0
  %11 = load i32, ptr %10, align 4
  ret i32 %11
}

; Function Attrs: mustprogress nounwind uwtable
define linkonce_odr hidden void @_ZN9s_integer4swapERS_(ptr noundef nonnull align 4 dereferenceable(4) %0, ptr noundef nonnull align 4 dereferenceable(4) %1) #4 comdat align 2 {
  %3 = alloca ptr, align 8
  %4 = alloca ptr, align 8
  store ptr %0, ptr %3, align 8, !tbaa !3
  store ptr %1, ptr %4, align 8, !tbaa !3
  %5 = load ptr, ptr %3, align 8
  %6 = getelementptr inbounds nuw %class.s_integer, ptr %5, i32 0, i32 0
  %7 = load ptr, ptr %4, align 8, !tbaa !3
  %8 = getelementptr inbounds nuw %class.s_integer, ptr %7, i32 0, i32 0
  call void @_ZSt4swapIiENSt9enable_ifIXsr6__and_ISt6__not_ISt15__is_tuple_likeIT_EESt21is_move_constructibleIS3_ESt18is_move_assignableIS3_EEE5valueEvE4typeERS3_SC_(ptr noundef nonnull align 4 dereferenceable(4) %6, ptr noundef nonnull align 4 dereferenceable(4) %8) #3
  ret void
}

; Function Attrs: inlinehint mustprogress nounwind uwtable
define linkonce_odr hidden noundef zeroext i1 @_ZltRK9s_integerS1_(ptr noundef nonnull align 4 dereferenceable(4) %0, ptr noundef nonnull align 4 dereferenceable(4) %1) #8 comdat {
  %3 = alloca ptr, align 8
  %4 = alloca ptr, align 8
  store ptr %0, ptr %3, align 8, !tbaa !3
  store ptr %1, ptr %4, align 8, !tbaa !3
  %5 = load ptr, ptr %3, align 8, !tbaa !3
  %6 = getelementptr inbounds nuw %class.s_integer, ptr %5, i32 0, i32 0
  %7 = load i32, ptr %6, align 4, !tbaa !10
  %8 = load ptr, ptr %4, align 8, !tbaa !3
  %9 = getelementptr inbounds nuw %class.s_integer, ptr %8, i32 0, i32 0
  %10 = load i32, ptr %9, align 4, !tbaa !10
  %11 = icmp slt i32 %7, %10
  ret i1 %11
}

; Function Attrs: mustprogress nounwind uwtable
define linkonce_odr hidden void @_ZN9s_integer3negEv(ptr noundef nonnull align 4 dereferenceable(4) %0) #4 comdat align 2 {
  %2 = alloca ptr, align 8
  store ptr %0, ptr %2, align 8, !tbaa !3
  %3 = load ptr, ptr %2, align 8
  %4 = getelementptr inbounds nuw %class.s_integer, ptr %3, i32 0, i32 0
  %5 = load i32, ptr %4, align 4, !tbaa !10
  %6 = sub nsw i32 0, %5
  %7 = getelementptr inbounds nuw %class.s_integer, ptr %3, i32 0, i32 0
  store i32 %6, ptr %7, align 4, !tbaa !10
  ret void
}

; Function Attrs: mustprogress nounwind uwtable
define linkonce_odr hidden noundef zeroext i1 @_ZNK9s_integer6is_negEv(ptr noundef nonnull align 4 dereferenceable(4) %0) #4 comdat align 2 {
  %2 = alloca ptr, align 8
  store ptr %0, ptr %2, align 8, !tbaa !3
  %3 = load ptr, ptr %2, align 8
  %4 = getelementptr inbounds nuw %class.s_integer, ptr %3, i32 0, i32 0
  %5 = load i32, ptr %4, align 4, !tbaa !10
  %6 = icmp slt i32 %5, 0
  ret i1 %6
}

; Function Attrs: mustprogress uwtable
define hidden i32 @_Z3gcdRK9s_integerS1_(ptr noundef nonnull align 4 dereferenceable(4) %0, ptr noundef nonnull align 4 dereferenceable(4) %1) #5 {
  %3 = alloca %class.s_integer, align 4
  %4 = alloca ptr, align 8
  %5 = alloca ptr, align 8
  %6 = alloca %class.s_integer, align 4
  %7 = alloca %class.s_integer, align 4
  %8 = alloca i32, align 4
  store ptr %0, ptr %4, align 8, !tbaa !3
  store ptr %1, ptr %5, align 8, !tbaa !3
  call void @llvm.lifetime.start.p0(i64 4, ptr %6) #3
  %9 = load ptr, ptr %4, align 8, !tbaa !3
  call void @llvm.memcpy.p0.p0.i64(ptr align 4 %6, ptr align 4 %9, i64 4, i1 false), !tbaa.struct !14
  %10 = load ptr, ptr %5, align 8, !tbaa !3
  call void @llvm.memcpy.p0.p0.i64(ptr align 4 %3, ptr align 4 %10, i64 4, i1 false), !tbaa.struct !14
  %11 = call noundef zeroext i1 @_ZNK9s_integer6is_negEv(ptr noundef nonnull align 4 dereferenceable(4) %6)
  br i1 %11, label %12, label %13

12:                                               ; preds = %2
  call void @_ZN9s_integer3negEv(ptr noundef nonnull align 4 dereferenceable(4) %6)
  br label %13

13:                                               ; preds = %12, %2
  %14 = call noundef zeroext i1 @_ZNK9s_integer6is_negEv(ptr noundef nonnull align 4 dereferenceable(4) %3)
  br i1 %14, label %15, label %16

15:                                               ; preds = %13
  call void @_ZN9s_integer3negEv(ptr noundef nonnull align 4 dereferenceable(4) %3)
  br label %16

16:                                               ; preds = %15, %13
  %17 = call noundef zeroext i1 @_ZltRK9s_integerS1_(ptr noundef nonnull align 4 dereferenceable(4) %6, ptr noundef nonnull align 4 dereferenceable(4) %3)
  br i1 %17, label %18, label %19

18:                                               ; preds = %16
  call void @_ZN9s_integer4swapERS_(ptr noundef nonnull align 4 dereferenceable(4) %6, ptr noundef nonnull align 4 dereferenceable(4) %3) #3
  br label %19

19:                                               ; preds = %18, %16
  br label %20

20:                                               ; preds = %28, %19
  call void @llvm.lifetime.start.p0(i64 4, ptr %7) #3
  %21 = call i32 @_ZrmRK9s_integerS1_(ptr noundef nonnull align 4 dereferenceable(4) %6, ptr noundef nonnull align 4 dereferenceable(4) %3)
  %22 = getelementptr inbounds nuw %class.s_integer, ptr %7, i32 0, i32 0
  store i32 %21, ptr %22, align 4
  %23 = call noundef zeroext i1 @_ZNK9s_integer7is_zeroEv(ptr noundef nonnull align 4 dereferenceable(4) %7)
  br i1 %23, label %24, label %25

24:                                               ; preds = %20
  store i32 1, ptr %8, align 4
  br label %26

25:                                               ; preds = %20
  call void @llvm.memcpy.p0.p0.i64(ptr align 4 %6, ptr align 4 %3, i64 4, i1 false), !tbaa.struct !14
  call void @llvm.memcpy.p0.p0.i64(ptr align 4 %3, ptr align 4 %7, i64 4, i1 false), !tbaa.struct !14
  store i32 0, ptr %8, align 4
  br label %26

26:                                               ; preds = %25, %24
  call void @llvm.lifetime.end.p0(i64 4, ptr %7) #3
  %27 = load i32, ptr %8, align 4
  switch i32 %27, label %29 [
    i32 0, label %28
  ]

28:                                               ; preds = %26
  br label %20, !llvm.loop !17

29:                                               ; preds = %26
  call void @llvm.lifetime.end.p0(i64 4, ptr %6) #3
  %30 = getelementptr inbounds nuw %class.s_integer, ptr %3, i32 0, i32 0
  %31 = load i32, ptr %30, align 4
  ret i32 %31
}