; Function Attrs: mustprogress nofree norecurse nosync nounwind willreturn memory(argmem: read) uwtable
define hidden range(i32 0, -2147483648) i32 @_Z3gcdRK9s_integerS1_(ptr noundef nonnull readonly align 4 captures(none) dereferenceable(4) %0, ptr noundef nonnull readonly align 4 captures(none) dereferenceable(4) %1) local_unnamed_addr #5 {
  %3 = load i32, ptr %0, align 4, !tbaa !8
  %4 = load i32, ptr %1, align 4, !tbaa !8
  %spec.select = tail call i32 @llvm.abs.i32(i32 %3, i1 true)
  %.sroa.08.0 = tail call i32 @llvm.abs.i32(i32 %4, i1 true)
  %.sroa.03.1 = tail call i32 @llvm.umax.i32(i32 %spec.select, i32 %.sroa.08.0)
  %.sroa.08.1 = tail call i32 @llvm.umin.i32(i32 %spec.select, i32 %.sroa.08.0)
  br label %5

5:                                                ; preds = %5, %2
  %.sroa.03.2 = phi i32 [ %.sroa.03.1, %2 ], [ %.sroa.08.2, %5 ]
  %.sroa.08.2 = phi i32 [ %.sroa.08.1, %2 ], [ %6, %5 ]
  %6 = urem i32 %.sroa.03.2, %.sroa.08.2
  %7 = icmp eq i32 %6, 0
  br i1 %7, label %.critedge, label %5, !llvm.loop !11

.critedge:                                        ; preds = %5
  ret i32 %.sroa.08.2
}